target datalayout = "e-m:e-p270:32:32-p271:32:32-p272:64:64-i64:64-i128:128-f80:128-n8:16:32:64-S128"
target triple = "x86_64-pc-linux-gnu"

%"struct.icu_77::Edits::Iterator" = type <{ ptr, i32, i32, i32, i8, i8, i8, i8, i32, i32, i32, i32, i32, [4 x i8] }>

; Function Attrs: mustprogress nounwind uwtable
define void @_ZN6icu_775Edits8Iterator17updateNextIndexesEv(ptr noundef nonnull align 8 dereferenceable(48) %0) #0 align 2 {
  %2 = alloca ptr, align 8
  store ptr %0, ptr %2, align 8, !tbaa !40
  %3 = load ptr, ptr %2, align 8
  %4 = getelementptr inbounds nuw %"struct.icu_77::Edits::Iterator", ptr %3, i32 0, i32 8
  %5 = load i32, ptr %4, align 8, !tbaa !44
  %6 = getelementptr inbounds nuw %"struct.icu_77::Edits::Iterator", ptr %3, i32 0, i32 10
  %7 = load i32, ptr %6, align 8, !tbaa !53
  %8 = add nsw i32 %7, %5
  store i32 %8, ptr %6, align 8, !tbaa !53
  %9 = getelementptr inbounds nuw %"struct.icu_77::Edits::Iterator", ptr %3, i32 0, i32 7
  %10 = load i8, ptr %9, align 1, !tbaa !46
  %11 = icmp ne i8 %10, 0
  br i1 %11, label %12, label %18

12:                                               ; preds = %1
  %13 = getelementptr inbounds nuw %"struct.icu_77::Edits::Iterator", ptr %3, i32 0, i32 9
  %14 = load i32, ptr %13, align 4, !tbaa !45
  %15 = getelementptr inbounds nuw %"struct.icu_77::Edits::Iterator", ptr %3, i32 0, i32 11
  %16 = load i32, ptr %15, align 4, !tbaa !54
  %17 = add nsw i32 %16, %14
  store i32 %17, ptr %15, align 4, !tbaa !54
  br label %18

18:                                               ; preds = %12, %1
  %19 = getelementptr inbounds nuw %"struct.icu_77::Edits::Iterator", ptr %3, i32 0, i32 9
  %20 = load i32, ptr %19, align 4, !tbaa !45
  %21 = getelementptr inbounds nuw %"struct.icu_77::Edits::Iterator", ptr %3, i32 0, i32 12
  %22 = load i32, ptr %21, align 8, !tbaa !55
  %23 = add nsw i32 %22, %20
  store i32 %23, ptr %21, align 8, !tbaa !55
  ret void
}